target datalayout = "e-m:e-p270:32:32-p271:32:32-p272:64:64-i64:64-i128:128-f80:128-n8:16:32:64-S128"
target triple = "x86_64-unknown-linux-gnu"

%"class.std::vector.3" = type { %"struct.std::_Vector_base.4" }
%"struct.std::_Vector_base.4" = type { %"struct.std::_Vector_base<std::shared_ptr<const facebook::velox::core::PlanNode>, std::allocator<std::shared_ptr<const facebook::velox::core::PlanNode>>>::_Vector_impl" }
%"struct.std::_Vector_base<std::shared_ptr<const facebook::velox::core::PlanNode>, std::allocator<std::shared_ptr<const facebook::velox::core::PlanNode>>>::_Vector_impl" = type { %"struct.std::_Vector_base<std::shared_ptr<const facebook::velox::core::PlanNode>, std::allocator<std::shared_ptr<const facebook::velox::core::PlanNode>>>::_Vector_impl_data" }
%"struct.std::_Vector_base<std::shared_ptr<const facebook::velox::core::PlanNode>, std::allocator<std::shared_ptr<const facebook::velox::core::PlanNode>>>::_Vector_impl_data" = type { ptr, ptr, ptr }
%"class.std::__cxx11::basic_string" = type { %"struct.std::__cxx11::basic_string<char>::_Alloc_hider", i64, %union.anon }
%"struct.std::__cxx11::basic_string<char>::_Alloc_hider" = type { ptr }
%union.anon = type { i64, [8 x i8] }
%"class.std::__shared_count" = type { ptr }
%"class.facebook::velox::core::PlanNode" = type { %"class.facebook::velox::ISerializable", %"class.std::__cxx11::basic_string" }
%"class.facebook::velox::ISerializable" = type { ptr }
%"class.facebook::velox::core::LocalPartitionNode" = type { %"class.facebook::velox::core::PlanNode", i32, %"class.std::vector.3", %"class.std::shared_ptr.393" }
%"class.std::shared_ptr.393" = type { %"class.std::__shared_ptr.394" }
%"class.std::__shared_ptr.394" = type { ptr, %"class.std::__shared_count" }

@.str.6 = private unnamed_addr constant [2 x i8] c" \00", align 1
@.str.105 = private unnamed_addr constant [7 x i8] c"GATHER\00", align 1
@.str.106 = private unnamed_addr constant [12 x i8] c"REPARTITION\00", align 1

; Function Attrs: mustprogress nounwind uwtable
define linkonce_odr noundef ptr @_ZNKSt12__shared_ptrIKN8facebook5velox4core21PartitionFunctionSpecELN9__gnu_cxx12_Lock_policyE2EE3getEv(ptr noundef nonnull align 8 dereferenceable(16) %this) #1 comdat align 2 {
entry:
  %this.addr = alloca ptr, align 8
  store ptr %this, ptr %this.addr, align 8
  %this1 = load ptr, ptr %this.addr, align 8
  %_M_ptr = getelementptr inbounds %"class.std::__shared_ptr.394", ptr %this1, i32 0, i32 0
  %0 = load ptr, ptr %_M_ptr, align 8
  ret ptr %0
}

; Function Attrs: mustprogress nounwind uwtable
define linkonce_odr noundef ptr @_ZNKSt19__shared_ptr_accessIKN8facebook5velox4core21PartitionFunctionSpecELN9__gnu_cxx12_Lock_policyE2ELb0ELb0EE6_M_getEv(ptr noundef nonnull align 1 dereferenceable(1) %this) #1 comdat align 2 {
entry:
  %this.addr = alloca ptr, align 8
  store ptr %this, ptr %this.addr, align 8
  %this1 = load ptr, ptr %this.addr, align 8
  %call = call noundef ptr @_ZNKSt12__shared_ptrIKN8facebook5velox4core21PartitionFunctionSpecELN9__gnu_cxx12_Lock_policyE2EE3getEv(ptr noundef nonnull align 8 dereferenceable(16) %this1) #5
  ret ptr %call
}

; Function Attrs: mustprogress nounwind uwtable
define linkonce_odr noundef ptr @_ZNKSt19__shared_ptr_accessIKN8facebook5velox4core21PartitionFunctionSpecELN9__gnu_cxx12_Lock_policyE2ELb0ELb0EEptEv(ptr noundef nonnull align 1 dereferenceable(1) %this) #1 comdat align 2 {
entry:
  %this.addr = alloca ptr, align 8
  store ptr %this, ptr %this.addr, align 8
  %this1 = load ptr, ptr %this.addr, align 8
  %call = call noundef ptr @_ZNKSt19__shared_ptr_accessIKN8facebook5velox4core21PartitionFunctionSpecELN9__gnu_cxx12_Lock_policyE2ELb0ELb0EE6_M_getEv(ptr noundef nonnull align 1 dereferenceable(1) %this1) #5
  ret ptr %call
}

; Function Attrs: mustprogress nounwind uwtable
define noundef ptr @_ZN8facebook5velox4core18LocalPartitionNode8typeNameENS2_4TypeE(i32 noundef %type) #1 align 2 {
entry:
  %retval = alloca ptr, align 8
  %type.addr = alloca i32, align 4
  store i32 %type, ptr %type.addr, align 4
  %0 = load i32, ptr %type.addr, align 4
  switch i32 %0, label %sw.epilog [
    i32 0, label %sw.bb
    i32 1, label %sw.bb1
  ]

sw.bb:                                            ; preds = %entry
  store ptr @.str.105, ptr %retval, align 8
  br label %return

sw.bb1:                                           ; preds = %entry
  store ptr @.str.106, ptr %retval, align 8
  br label %return

sw.epilog:                                        ; preds = %entry
  call void @llvm.trap()
  call void @llvm.trap()
  unreachable

return:                                           ; preds = %sw.bb1, %sw.bb
  %1 = load ptr, ptr %retval, align 8
  ret ptr %1
}

; Function Attrs: mustprogress uwtable
define void @_ZNK8facebook5velox4core18LocalPartitionNode10addDetailsERNSt7__cxx1118basic_stringstreamIcSt11char_traitsIcESaIcEEE(ptr noundef nonnull align 8 dereferenceable(88) %this, ptr noundef nonnull align 8 dereferenceable(128) %stream) unnamed_addr #2 align 2 personality ptr @__gxx_personality_v0 {
entry:
  %this.addr = alloca ptr, align 8
  %stream.addr = alloca ptr, align 8
  %ref.tmp = alloca %"class.std::__cxx11::basic_string", align 8
  %exn.slot = alloca ptr, align 8
  %ehselector.slot = alloca i32, align 4
  store ptr %this, ptr %this.addr, align 8
  store ptr %stream, ptr %stream.addr, align 8
  %this1 = load ptr, ptr %this.addr, align 8
  %0 = load ptr, ptr %stream.addr, align 8
  %add.ptr = getelementptr inbounds i8, ptr %0, i64 16
  %type_ = getelementptr inbounds %"class.facebook::velox::core::LocalPartitionNode", ptr %this1, i32 0, i32 1
  %1 = load i32, ptr %type_, align 8
  %call = call noundef ptr @_ZN8facebook5velox4core18LocalPartitionNode8typeNameENS2_4TypeE(i32 noundef %1)
  %call2 = call noundef nonnull align 8 dereferenceable(8) ptr @_ZStlsISt11char_traitsIcEERSt13basic_ostreamIcT_ES5_PKc(ptr noundef nonnull align 8 dereferenceable(8) %add.ptr, ptr noundef %call)
  %type_3 = getelementptr inbounds %"class.facebook::velox::core::LocalPartitionNode", ptr %this1, i32 0, i32 1
  %2 = load i32, ptr %type_3, align 8
  %cmp = icmp ne i32 %2, 0
  br i1 %cmp, label %if.then, label %if.end

if.then:                                          ; preds = %entry
  %3 = load ptr, ptr %stream.addr, align 8
  %add.ptr4 = getelementptr inbounds i8, ptr %3, i64 16
  %call5 = call noundef nonnull align 8 dereferenceable(8) ptr @_ZStlsISt11char_traitsIcEERSt13basic_ostreamIcT_ES5_PKc(ptr noundef nonnull align 8 dereferenceable(8) %add.ptr4, ptr noundef @.str.6)
  %partitionFunctionSpec_ = getelementptr inbounds %"class.facebook::velox::core::LocalPartitionNode", ptr %this1, i32 0, i32 3
  %call6 = call noundef ptr @_ZNKSt19__shared_ptr_accessIKN8facebook5velox4core21PartitionFunctionSpecELN9__gnu_cxx12_Lock_policyE2ELb0ELb0EEptEv(ptr noundef nonnull align 1 dereferenceable(1) %partitionFunctionSpec_) #5
  %vtable = load ptr, ptr %call6, align 8
  %vfn = getelementptr inbounds ptr, ptr %vtable, i64 4
  %4 = load ptr, ptr %vfn, align 8
  call void %4(ptr sret(%"class.std::__cxx11::basic_string") align 8 %ref.tmp, ptr noundef nonnull align 8 dereferenceable(8) %call6)
  %call7 = invoke noundef nonnull align 8 dereferenceable(8) ptr @_ZStlsIcSt11char_traitsIcESaIcEERSt13basic_ostreamIT_T0_ES7_RKNSt7__cxx1112basic_stringIS4_S5_T1_EE(ptr noundef nonnull align 8 dereferenceable(8) %call5, ptr noundef nonnull align 8 dereferenceable(32) %ref.tmp)
          to label %invoke.cont unwind label %lpad

invoke.cont:                                      ; preds = %if.then
  call void @_ZNSt7__cxx1112basic_stringIcSt11char_traitsIcESaIcEED1Ev(ptr noundef nonnull align 8 dereferenceable(32) %ref.tmp) #5
  br label %if.end

lpad:                                             ; preds = %if.then
  %5 = landingpad { ptr, i32 }
          cleanup
  %6 = extractvalue { ptr, i32 } %5, 0
  store ptr %6, ptr %exn.slot, align 8
  %7 = extractvalue { ptr, i32 } %5, 1
  store i32 %7, ptr %ehselector.slot, align 4
  call void @_ZNSt7__cxx1112basic_stringIcSt11char_traitsIcESaIcEED1Ev(ptr noundef nonnull align 8 dereferenceable(32) %ref.tmp) #5
  br label %eh.resume

if.end:                                           ; preds = %invoke.cont, %entry
  ret void

eh.resume:                                        ; preds = %lpad
  %exn = load ptr, ptr %exn.slot, align 8
  %sel = load i32, ptr %ehselector.slot, align 4
  %lpad.val = insertvalue { ptr, i32 } poison, ptr %exn, 0
  %lpad.val8 = insertvalue { ptr, i32 } %lpad.val, i32 %sel, 1
  resume { ptr, i32 } %lpad.val8
}