; Function Attrs: mustprogress uwtable
define void @_ZNK8facebook5velox4core18LocalPartitionNode10addDetailsERNSt7__cxx1118basic_stringstreamIcSt11char_traitsIcESaIcEEE(ptr nocapture noundef nonnull readonly align 8 dereferenceable(88) %this, ptr noundef nonnull align 8 dereferenceable(128) %stream) unnamed_addr #0 align 2 personality ptr @__gxx_personality_v0 {
entry:
  %ref.tmp = alloca %"class.std::__cxx11::basic_string", align 8
  %add.ptr = getelementptr inbounds i8, ptr %stream, i64 16
  %type_ = getelementptr inbounds i8, ptr %this, i64 40
  %0 = load i32, ptr %type_, align 8
  switch i32 %0, label %sw.epilog.i [
    i32 0, label %_ZN8facebook5velox4core18LocalPartitionNode8typeNameENS2_4TypeE.exit
    i32 1, label %sw.bb1.i
  ]

sw.bb1.i:                                         ; preds = %entry
  br label %_ZN8facebook5velox4core18LocalPartitionNode8typeNameENS2_4TypeE.exit

sw.epilog.i:                                      ; preds = %entry
  tail call void @llvm.trap()
  unreachable

_ZN8facebook5velox4core18LocalPartitionNode8typeNameENS2_4TypeE.exit: ; preds = %entry, %sw.bb1.i
  %retval.0.i = phi ptr [ @.str.106, %sw.bb1.i ], [ @.str.105, %entry ]
  %call2 = tail call noundef nonnull align 8 dereferenceable(8) ptr @_ZStlsISt11char_traitsIcEERSt13basic_ostreamIcT_ES5_PKc(ptr noundef nonnull align 8 dereferenceable(8) %add.ptr, ptr noundef nonnull %retval.0.i)
  %1 = load i32, ptr %type_, align 8
  %cmp.not = icmp eq i32 %1, 0
  br i1 %cmp.not, label %if.end, label %if.then

if.then:                                          ; preds = %_ZN8facebook5velox4core18LocalPartitionNode8typeNameENS2_4TypeE.exit
  %call5 = tail call noundef nonnull align 8 dereferenceable(8) ptr @_ZStlsISt11char_traitsIcEERSt13basic_ostreamIcT_ES5_PKc(ptr noundef nonnull align 8 dereferenceable(8) %add.ptr, ptr noundef nonnull @.str.6)
  %partitionFunctionSpec_ = getelementptr inbounds i8, ptr %this, i64 72
  %2 = load ptr, ptr %partitionFunctionSpec_, align 8
  %vtable = load ptr, ptr %2, align 8
  %vfn = getelementptr inbounds i8, ptr %vtable, i64 32
  %3 = load ptr, ptr %vfn, align 8
  call void %3(ptr nonnull sret(%"class.std::__cxx11::basic_string") align 8 %ref.tmp, ptr noundef nonnull align 8 dereferenceable(8) %2)
  %call7 = invoke noundef nonnull align 8 dereferenceable(8) ptr @_ZStlsIcSt11char_traitsIcESaIcEERSt13basic_ostreamIT_T0_ES7_RKNSt7__cxx1112basic_stringIS4_S5_T1_EE(ptr noundef nonnull align 8 dereferenceable(8) %call5, ptr noundef nonnull align 8 dereferenceable(32) %ref.tmp)
          to label %invoke.cont unwind label %lpad

invoke.cont:                                      ; preds = %if.then
  call void @_ZNSt7__cxx1112basic_stringIcSt11char_traitsIcESaIcEED1Ev(ptr noundef nonnull align 8 dereferenceable(32) %ref.tmp) #30
  br label %if.end

lpad:                                             ; preds = %if.then
  %4 = landingpad { ptr, i32 }
          cleanup
  call void @_ZNSt7__cxx1112basic_stringIcSt11char_traitsIcESaIcEED1Ev(ptr noundef nonnull align 8 dereferenceable(32) %ref.tmp) #30
  resume { ptr, i32 } %4

if.end:                                           ; preds = %invoke.cont, %_ZN8facebook5velox4core18LocalPartitionNode8typeNameENS2_4TypeE.exit
  ret void
}